; Function Attrs: nounwind uwtable
define i64 @_php_stream_copy_to_stream(ptr noundef %0, ptr noundef %1, i64 noundef %2) local_unnamed_addr #2 {
  %4 = alloca i64, align 8
  %5 = call i32 @_php_stream_copy_to_stream_ex(ptr noundef %0, ptr noundef %1, i64 noundef %2, ptr noundef nonnull %4), !range !5
  %6 = icmp eq i32 %5, 0
  %7 = load i64, ptr %4, align 8
  %8 = icmp eq i64 %7, 0
  %or.cond = select i1 %6, i1 %8, i1 false
  %9 = icmp ne i64 %2, 0
  %or.cond3 = and i1 %9, %or.cond
  %. = select i1 %or.cond3, i64 1, i64 %7
  ret i64 %.
}